Certificate:
    Data:
        Version: 3 (0x2)
        Serial Number: 1 (0x1)
        Signature Algorithm: sha256WithRSAEncryption
        Issuer: C=HK, ST=HK, L=HK, O=CUHK, OU=CUHK, CN=Yau Chung Yiu/emailAddress=1155109029@link.cuhk.edu.hk
        Validity
            Not Before: Mar 17 07:47:17 2020 GMT
            Not After : Mar 17 07:47:17 2021 GMT
        Subject: CN=Yau Chung Yiu myftp-server, ST=HK, C=HK/emailAddress=1155109029@link.cuhk.edu.hk, O=CUHK
        Subject Public Key Info:
            Public Key Algorithm: rsaEncryption
                RSA Public-Key: (1024 bit)
                Modulus:
                    00:9d:c3:e4:bf:9e:bd:56:6b:0e:50:0a:b5:0e:20:
                    52:96:68:52:66:42:15:48:04:22:6f:67:77:8f:66:
                    e3:2e:d4:07:95:2a:da:8a:fe:85:e0:18:d4:de:ed:
                    6c:31:8f:be:49:fa:3e:f4:69:16:e8:23:49:21:af:
                    a0:18:6c:fd:a2:d3:80:fb:9a:50:89:12:f1:07:c9:
                    4f:bf:f3:b3:23:cc:1a:f7:ae:01:7a:28:9e:7e:6f:
                    11:60:f3:28:e4:1d:57:7d:a3:cd:88:c9:50:5b:72:
                    a8:12:55:6a:46:3d:00:c5:66:b0:31:b7:ef:7b:2f:
                    bf:ff:eb:32:fd:8a:6a:49:7f
                Exponent: 65537 (0x10001)
        X509v3 extensions:
            X509v3 Basic Constraints: 
                CA:FALSE
    Signature Algorithm: sha256WithRSAEncryption
         59:56:e9:ae:b3:4d:e7:a5:1a:5a:73:fe:6b:78:c4:8c:45:e7:
         a7:4b:04:d8:b1:5b:54:83:7c:30:5a:d4:d1:c1:2f:9e:45:ff:
         1d:67:9f:bd:31:ed:60:e9:77:22:69:4a:b7:31:0d:83:1e:5c:
         af:89:11:37:a7:fe:e6:d1:0e:04:5e:12:a9:41:a1:90:b8:01:
         b5:be:a6:08:49:79:6d:06:dc:94:ba:c2:73:d1:64:42:48:f3:
         54:f2:da:90:23:7e:fd:c5:4c:5d:67:42:36:f4:ea:a6:08:52:
         1f:ea:a0:a1:af:96:16:f0:7e:73:32:89:8a:53:e2:1b:83:45:
         4e:42
-----BEGIN CERTIFICATE-----
MIIChzCCAfCgAwIBAgIBATANBgkqhkiG9w0BAQsFADCBiTELMAkGA1UEBhMCSEsx
CzAJBgNVBAgMAkhLMQswCQYDVQQHDAJISzENMAsGA1UECgwEQ1VISzENMAsGA1UE
CwwEQ1VISzEWMBQGA1UEAwwNWWF1IENodW5nIFlpdTEqMCgGCSqGSIb3DQEJARYb
MTE1NTEwOTAyOUBsaW5rLmN1aGsuZWR1LmhrMB4XDTIwMDMxNzA3NDcxN1oXDTIx
MDMxNzA3NDcxN1owejEjMCEGA1UEAwwaWWF1IENodW5nIFlpdSBteWZ0cC1zZXJ2
ZXIxCzAJBgNVBAgMAkhLMQswCQYDVQQGEwJISzEqMCgGCSqGSIb3DQEJARYbMTE1
NTEwOTAyOUBsaW5rLmN1aGsuZWR1LmhrMQ0wCwYDVQQKDARDVUhLMIGfMA0GCSqG
SIb3DQEBAQUAA4GNADCBiQKBgQCdw+S/nr1Waw5QCrUOIFKWaFJmQhVIBCJvZ3eP
ZuMu1AeVKtqK/oXgGNTe7Wwxj75J+j70aRboI0khr6AYbP2i04D7mlCJEvEHyU+/
87MjzBr3rgF6KJ5+bxFg8yjkHVd9o82IyVBbcqgSVWpGPQDFZrAxt+97L7//6zL9
impJfwIDAQABow0wCzAJBgNVHRMEAjAAMA0GCSqGSIb3DQEBCwUAA4GBAFlW6a6z
TeelGlpz/mt4xIxF56dLBNixW1SDfDBa1NHBL55F/x1nn70x7WDpdyJpSrcxDYMe
XK+JETen/ubRDgReEqlBoZC4AbW+pghJeW0G3JS6wnPRZEJI81Ty2pAjfv3FTF1n
Qjb06qYIUh/qoKGvlhbwfnMyiYpT4huDRU5C
-----END CERTIFICATE-----
