Certificate:
    Data:
        Version: 3 (0x2)
        Serial Number: 1 (0x1)
    Signature Algorithm: sha256WithRSAEncryption
        Issuer: C=HK, ST=HK, L=HK, O=CUHK-group31, CN=YauChungYiu-group31/emailAddress=1155109029@link.cuhk.edu.hk
        Validity
            Not Before: Mar 17 08:57:14 2020 GMT
            Not After : Mar 17 08:57:14 2021 GMT
        Subject: CN=YauChungYiu-group31-server, ST=HK, C=HK/emailAddress=1155109029@link.cuhk.edu.hk, O=CUHK-group31
        Subject Public Key Info:
            Public Key Algorithm: rsaEncryption
                Public-Key: (1024 bit)
                Modulus:
                    00:be:7f:f1:33:db:b3:bf:1b:a5:15:53:5c:62:6e:
                    09:45:33:e4:21:53:c2:ed:1b:bb:84:dc:51:a6:ba:
                    e1:17:e3:4a:21:99:20:f7:8a:15:61:45:50:7b:e7:
                    00:87:0c:2c:9c:1a:bb:7c:a9:48:a3:46:5d:d8:a0:
                    5e:a8:d5:72:ae:9a:6f:28:19:b8:7d:ae:00:16:f9:
                    6f:69:47:74:bc:d8:75:45:7b:17:b7:90:3e:0e:b9:
                    ad:08:0d:d9:fa:3d:75:be:ae:d6:4b:94:e0:a5:2f:
                    6d:b9:51:02:52:0c:9e:02:f2:8f:11:8d:b1:5e:fe:
                    b9:b0:81:d1:51:5a:58:60:77
                Exponent: 65537 (0x10001)
        X509v3 extensions:
            X509v3 Basic Constraints: 
                CA:FALSE
    Signature Algorithm: sha256WithRSAEncryption
         1e:a8:64:be:54:81:d2:88:61:6c:db:86:a3:37:a2:c4:53:c3:
         84:6b:57:d5:b5:11:11:43:83:75:d1:a6:1c:c0:09:ee:3e:0c:
         2b:10:bf:6c:ea:f6:e6:6f:73:b8:1e:70:9d:08:79:eb:51:f1:
         fe:22:49:dc:63:77:d9:ed:f2:f9:c2:8d:b1:1e:4b:b5:bb:1a:
         07:c6:2d:79:c4:91:eb:34:b2:30:78:a5:32:7c:20:cc:2a:de:
         e6:be:01:b8:dd:a1:24:5a:54:0a:b1:59:f3:cd:95:01:d6:eb:
         a5:f1:51:7f:35:8f:2c:e5:95:01:b9:98:3c:24:a4:f7:b9:5f:
         ee:e4
-----BEGIN CERTIFICATE-----
MIICjzCCAfigAwIBAgIBATANBgkqhkiG9w0BAQsFADCBiDELMAkGA1UEBhMCSEsx
CzAJBgNVBAgMAkhLMQswCQYDVQQHDAJISzEVMBMGA1UECgwMQ1VISy1ncm91cDMx
MRwwGgYDVQQDDBNZYXVDaHVuZ1lpdS1ncm91cDMxMSowKAYJKoZIhvcNAQkBFhsx
MTU1MTA5MDI5QGxpbmsuY3Voay5lZHUuaGswHhcNMjAwMzE3MDg1NzE0WhcNMjEw
MzE3MDg1NzE0WjCBgjEjMCEGA1UEAwwaWWF1Q2h1bmdZaXUtZ3JvdXAzMS1zZXJ2
ZXIxCzAJBgNVBAgMAkhLMQswCQYDVQQGEwJISzEqMCgGCSqGSIb3DQEJARYbMTE1
NTEwOTAyOUBsaW5rLmN1aGsuZWR1LmhrMRUwEwYDVQQKDAxDVUhLLWdyb3VwMzEw
gZ8wDQYJKoZIhvcNAQEBBQADgY0AMIGJAoGBAL5/8TPbs78bpRVTXGJuCUUz5CFT
wu0bu4TcUaa64RfjSiGZIPeKFWFFUHvnAIcMLJwau3ypSKNGXdigXqjVcq6abygZ
uH2uABb5b2lHdLzYdUV7F7eQPg65rQgN2fo9db6u1kuU4KUvbblRAlIMngLyjxGN
sV7+ubCB0VFaWGB3AgMBAAGjDTALMAkGA1UdEwQCMAAwDQYJKoZIhvcNAQELBQAD
gYEAHqhkvlSB0ohhbNuGozeixFPDhGtX1bUREUODddGmHMAJ7j4MKxC/bOr25m9z
uB5wnQh561Hx/iJJ3GN32e3y+cKNsR5LtbsaB8YtecSR6zSyMHilMnwgzCre5r4B
uN2hJFpUCrFZ882VAdbrpfFRfzWPLOWVAbmYPCSk97lf7uQ=
-----END CERTIFICATE-----
