Certificate:
    Data:
        Version: 3 (0x2)
        Serial Number: 1 (0x1)
        Signature Algorithm: sha256WithRSAEncryption
        Issuer: C=HK, ST=HK, L=HK, O=CUHK, OU=CUHK, CN=Yau Chung Yiu/emailAddress=1155109029@link.cuhk.edu.hk
        Validity
            Not Before: Mar 17 07:15:02 2020 GMT
            Not After : Mar 17 07:15:02 2021 GMT
        Subject: CN=myftp-server, ST=HK, C=HK/emailAddress=1155109029@link.cuhk.edu.hk, O=myftp-server
        Subject Public Key Info:
            Public Key Algorithm: rsaEncryption
                RSA Public-Key: (1024 bit)
                Modulus:
                    00:9d:c3:e4:bf:9e:bd:56:6b:0e:50:0a:b5:0e:20:
                    52:96:68:52:66:42:15:48:04:22:6f:67:77:8f:66:
                    e3:2e:d4:07:95:2a:da:8a:fe:85:e0:18:d4:de:ed:
                    6c:31:8f:be:49:fa:3e:f4:69:16:e8:23:49:21:af:
                    a0:18:6c:fd:a2:d3:80:fb:9a:50:89:12:f1:07:c9:
                    4f:bf:f3:b3:23:cc:1a:f7:ae:01:7a:28:9e:7e:6f:
                    11:60:f3:28:e4:1d:57:7d:a3:cd:88:c9:50:5b:72:
                    a8:12:55:6a:46:3d:00:c5:66:b0:31:b7:ef:7b:2f:
                    bf:ff:eb:32:fd:8a:6a:49:7f
                Exponent: 65537 (0x10001)
        X509v3 extensions:
            X509v3 Basic Constraints: 
                CA:FALSE
    Signature Algorithm: sha256WithRSAEncryption
         a9:52:6e:76:9c:e6:04:28:71:d5:7e:4a:a1:6a:f9:08:a0:16:
         78:96:7b:e7:16:b3:1d:34:c1:d3:ed:d7:53:ca:e8:54:9e:69:
         be:94:d4:fe:d9:8b:04:77:51:d3:b1:5e:9a:b3:83:0f:bb:b8:
         b2:61:d1:33:86:79:1c:d3:d8:99:94:13:5f:a8:43:b4:1d:6b:
         26:d2:fb:d0:23:3e:bb:2a:28:e9:44:9b:ec:91:3a:ad:cc:c9:
         d9:48:18:70:8f:ce:5a:6b:3e:ca:9e:7d:74:9a:58:22:d0:e0:
         68:e1:2c:be:de:ac:c9:fe:73:64:fe:fc:19:bb:a2:99:d0:d4:
         8f:5f
-----BEGIN CERTIFICATE-----
MIICgTCCAeqgAwIBAgIBATANBgkqhkiG9w0BAQsFADCBiTELMAkGA1UEBhMCSEsx
CzAJBgNVBAgMAkhLMQswCQYDVQQHDAJISzENMAsGA1UECgwEQ1VISzENMAsGA1UE
CwwEQ1VISzEWMBQGA1UEAwwNWWF1IENodW5nIFlpdTEqMCgGCSqGSIb3DQEJARYb
MTE1NTEwOTAyOUBsaW5rLmN1aGsuZWR1LmhrMB4XDTIwMDMxNzA3MTUwMloXDTIx
MDMxNzA3MTUwMlowdDEVMBMGA1UEAwwMbXlmdHAtc2VydmVyMQswCQYDVQQIDAJI
SzELMAkGA1UEBhMCSEsxKjAoBgkqhkiG9w0BCQEWGzExNTUxMDkwMjlAbGluay5j
dWhrLmVkdS5oazEVMBMGA1UECgwMbXlmdHAtc2VydmVyMIGfMA0GCSqGSIb3DQEB
AQUAA4GNADCBiQKBgQCdw+S/nr1Waw5QCrUOIFKWaFJmQhVIBCJvZ3ePZuMu1AeV
KtqK/oXgGNTe7Wwxj75J+j70aRboI0khr6AYbP2i04D7mlCJEvEHyU+/87MjzBr3
rgF6KJ5+bxFg8yjkHVd9o82IyVBbcqgSVWpGPQDFZrAxt+97L7//6zL9impJfwID
AQABow0wCzAJBgNVHRMEAjAAMA0GCSqGSIb3DQEBCwUAA4GBAKlSbnac5gQocdV+
SqFq+QigFniWe+cWsx00wdPt11PK6FSeab6U1P7ZiwR3UdOxXpqzgw+7uLJh0TOG
eRzT2JmUE1+oQ7QdaybS+9AjPrsqKOlEm+yROq3MydlIGHCPzlprPsqefXSaWCLQ
4GjhLL7erMn+c2T+/Bm7opnQ1I9f
-----END CERTIFICATE-----
